target datalayout = "e-m:e-p270:32:32-p271:32:32-p272:64:64-i64:64-i128:128-f80:128-n8:16:32:64-S128"
target triple = "x86_64-pc-linux-gnu"

%"class.i18n::phonenumbers::PhoneMetadataCollectionDefaultTypeInternal" = type { %"class.google::protobuf::internal::ExplicitlyConstructed.2" }
%"class.google::protobuf::internal::ExplicitlyConstructed.2" = type { %"union.google::protobuf::internal::ExplicitlyConstructed<i18n::phonenumbers::PhoneMetadataCollection>::AlignedUnion" }
%"union.google::protobuf::internal::ExplicitlyConstructed<i18n::phonenumbers::PhoneMetadataCollection>::AlignedUnion" = type { i64, [40 x i8] }
%"class.google::protobuf::MessageLite" = type { ptr, %"class.google::protobuf::internal::InternalMetadata" }
%"class.google::protobuf::internal::InternalMetadata" = type { ptr }
%"class.google::protobuf::internal::CachedSize" = type { %"struct.std::atomic" }
%"struct.std::atomic" = type { %"struct.std::__atomic_base" }
%"struct.std::__atomic_base" = type { i32 }
%"class.google::protobuf::internal::RepeatedPtrFieldBase" = type { ptr, i32, i32, ptr }
%"struct.google::protobuf::internal::SCCInfoBase" = type { %"struct.std::atomic", i32, i32, ptr }
%"class.i18n::phonenumbers::PhoneMetadataCollection" = type <{ %"class.google::protobuf::MessageLite", %"class.google::protobuf::RepeatedPtrField.6", %"class.google::protobuf::internal::CachedSize", [4 x i8] }>
%"class.google::protobuf::RepeatedPtrField.6" = type { %"class.google::protobuf::internal::RepeatedPtrFieldBase" }

@_ZN4i18n12phonenumbers42_PhoneMetadataCollection_default_instance_E = dso_local global %"class.i18n::phonenumbers::PhoneMetadataCollectionDefaultTypeInternal" zeroinitializer, align 8
@.str = private unnamed_addr constant [148 x i8] c"generated/home/dtcxzyw/WorkSpace/Projects/compilers/llvm-opt-benchmark/bench/libphonenumber/libphonenumber/cpp/src/phonenumbers/phonemetadata.pb.cc\00", align 1
@_ZTVN6google8protobuf11MessageLiteE = external unnamed_addr constant { [16 x ptr] }, align 8

; Function Attrs: mustprogress nounwind uwtable
define linkonce_odr dso_local noundef i32 @_ZStanSt12memory_orderSt23__memory_order_modifier(i32 noundef %0, i32 noundef %1) #5 comdat {
  %3 = alloca i32, align 4
  %4 = alloca i32, align 4
  store i32 %0, ptr %3, align 4
  store i32 %1, ptr %4, align 4
  %5 = load i32, ptr %3, align 4
  %6 = load i32, ptr %4, align 4
  %7 = and i32 %5, %6
  ret i32 %7
}

; Function Attrs: mustprogress nounwind uwtable
define linkonce_odr dso_local void @_ZNSt13__atomic_baseIiEC2Ei(ptr noundef nonnull align 4 dereferenceable(4) %0, i32 noundef %1) unnamed_addr #5 comdat align 2 {
  %3 = alloca ptr, align 8
  %4 = alloca i32, align 4
  store ptr %0, ptr %3, align 8
  store i32 %1, ptr %4, align 4
  %5 = load ptr, ptr %3, align 8
  %6 = getelementptr inbounds %"struct.std::__atomic_base", ptr %5, i32 0, i32 0
  %7 = load i32, ptr %4, align 4
  store i32 %7, ptr %6, align 4
  ret void
}

; Function Attrs: mustprogress uwtable
define linkonce_odr dso_local void @_ZN6google8protobuf8internal7InitSCCEPNS1_11SCCInfoBaseE(ptr noundef %0) #4 comdat {
  %2 = alloca ptr, align 8
  %3 = alloca i32, align 4
  %4 = alloca i32, align 4
  %5 = alloca i32, align 4
  %6 = alloca ptr, align 8
  %7 = alloca i32, align 4
  store ptr %0, ptr %6, align 8
  %8 = load ptr, ptr %6, align 8
  %9 = getelementptr inbounds %"struct.google::protobuf::internal::SCCInfoBase", ptr %8, i32 0, i32 0
  store ptr %9, ptr %2, align 8
  store i32 2, ptr %3, align 4
  %10 = load ptr, ptr %2, align 8
  %11 = load i32, ptr %3, align 4
  %12 = call noundef i32 @_ZStanSt12memory_orderSt23__memory_order_modifier(i32 noundef %11, i32 noundef 65535)
  store i32 %12, ptr %4, align 4
  %13 = load i32, ptr %3, align 4
  switch i32 %13, label %14 [
    i32 1, label %16
    i32 2, label %16
    i32 5, label %18
  ]

14:                                               ; preds = %1
  %15 = load atomic i32, ptr %10 monotonic, align 4
  store i32 %15, ptr %5, align 4
  br label %20

16:                                               ; preds = %1, %1
  %17 = load atomic i32, ptr %10 acquire, align 4
  store i32 %17, ptr %5, align 4
  br label %20

18:                                               ; preds = %1
  %19 = load atomic i32, ptr %10 seq_cst, align 4
  store i32 %19, ptr %5, align 4
  br label %20

20:                                               ; preds = %18, %16, %14
  %21 = load i32, ptr %5, align 4
  store i32 %21, ptr %7, align 4
  %22 = load i32, ptr %7, align 4
  %23 = icmp ne i32 %22, 0
  br i1 %23, label %24, label %26

24:                                               ; preds = %20
  %25 = load ptr, ptr %6, align 8
  call void @_ZN6google8protobuf8internal11InitSCCImplEPNS1_11SCCInfoBaseE(ptr noundef %25)
  br label %26

26:                                               ; preds = %24, %20
  ret void
}

; Function Attrs: mustprogress nounwind uwtable
define linkonce_odr dso_local void @_ZNSt6atomicIiEC2Ei(ptr noundef nonnull align 4 dereferenceable(4) %0, i32 noundef %1) unnamed_addr #5 comdat align 2 {
  %3 = alloca ptr, align 8
  %4 = alloca i32, align 4
  store ptr %0, ptr %3, align 8
  store i32 %1, ptr %4, align 4
  %5 = load ptr, ptr %3, align 8
  %6 = load i32, ptr %4, align 4
  call void @_ZNSt13__atomic_baseIiEC2Ei(ptr noundef nonnull align 4 dereferenceable(4) %5, i32 noundef %6) #3
  ret void
}

; Function Attrs: mustprogress nounwind uwtable
define linkonce_odr dso_local void @_ZN6google8protobuf8internal20RepeatedPtrFieldBaseC2EPNS0_5ArenaE(ptr noundef nonnull align 8 dereferenceable(24) %0, ptr noundef %1) unnamed_addr #5 comdat align 2 {
  %3 = alloca ptr, align 8
  %4 = alloca ptr, align 8
  store ptr %0, ptr %3, align 8
  store ptr %1, ptr %4, align 8
  %5 = load ptr, ptr %3, align 8
  %6 = getelementptr inbounds %"class.google::protobuf::internal::RepeatedPtrFieldBase", ptr %5, i32 0, i32 0
  %7 = load ptr, ptr %4, align 8
  store ptr %7, ptr %6, align 8
  %8 = getelementptr inbounds %"class.google::protobuf::internal::RepeatedPtrFieldBase", ptr %5, i32 0, i32 1
  store i32 0, ptr %8, align 8
  %9 = getelementptr inbounds %"class.google::protobuf::internal::RepeatedPtrFieldBase", ptr %5, i32 0, i32 2
  store i32 0, ptr %9, align 4
  %10 = getelementptr inbounds %"class.google::protobuf::internal::RepeatedPtrFieldBase", ptr %5, i32 0, i32 3
  store ptr null, ptr %10, align 8
  ret void
}

; Function Attrs: mustprogress nounwind uwtable
define linkonce_odr dso_local void @_ZN6google8protobuf8internal16InternalMetadataC2EPNS0_5ArenaE(ptr noundef nonnull align 8 dereferenceable(8) %0, ptr noundef %1) unnamed_addr #5 comdat align 2 {
  %3 = alloca ptr, align 8
  %4 = alloca ptr, align 8
  store ptr %0, ptr %3, align 8
  store ptr %1, ptr %4, align 8
  %5 = load ptr, ptr %3, align 8
  %6 = getelementptr inbounds %"class.google::protobuf::internal::InternalMetadata", ptr %5, i32 0, i32 0
  %7 = load ptr, ptr %4, align 8
  store ptr %7, ptr %6, align 8
  ret void
}

; Function Attrs: mustprogress nounwind uwtable
define linkonce_odr dso_local void @_ZN6google8protobuf11MessageLiteD2Ev(ptr noundef nonnull align 8 dereferenceable(16) %0) unnamed_addr #5 comdat align 2 {
  %2 = alloca ptr, align 8
  store ptr %0, ptr %2, align 8
  ret void
}

; Function Attrs: mustprogress nounwind uwtable
define linkonce_odr dso_local void @_ZN4i18n12phonenumbers23PhoneMetadataCollection17RegisterArenaDtorEPN6google8protobuf5ArenaE(ptr noundef nonnull align 8 dereferenceable(48) %0, ptr noundef %1) #5 comdat align 2 {
  %3 = alloca ptr, align 8
  %4 = alloca ptr, align 8
  store ptr %0, ptr %3, align 8
  store ptr %1, ptr %4, align 8
  ret void
}

; Function Attrs: mustprogress uwtable
define linkonce_odr dso_local void @_ZN4i18n12phonenumbers23PhoneMetadataCollection10SharedCtorEv(ptr noundef nonnull align 8 dereferenceable(48) %0) #4 comdat align 2 {
  %2 = alloca ptr, align 8
  store ptr %0, ptr %2, align 8
  call void @_ZN6google8protobuf8internal7InitSCCEPNS1_11SCCInfoBaseE(ptr noundef @scc_info_PhoneMetadataCollection_phonemetadata_2eproto)
  ret void
}

; Function Attrs: mustprogress nounwind uwtable
define linkonce_odr dso_local void @_ZN6google8protobuf8internal10CachedSizeC2Ev(ptr noundef nonnull align 4 dereferenceable(4) %0) unnamed_addr #5 comdat align 2 {
  %2 = alloca ptr, align 8
  store ptr %0, ptr %2, align 8
  %3 = load ptr, ptr %2, align 8
  %4 = getelementptr inbounds %"class.google::protobuf::internal::CachedSize", ptr %3, i32 0, i32 0
  call void @_ZNSt6atomicIiEC2Ei(ptr noundef nonnull align 4 dereferenceable(4) %4, i32 noundef 0) #3
  ret void
}

; Function Attrs: mustprogress nounwind uwtable
define linkonce_odr dso_local void @_ZN6google8protobuf16RepeatedPtrFieldIN4i18n12phonenumbers13PhoneMetadataEEC2EPNS0_5ArenaE(ptr noundef nonnull align 8 dereferenceable(24) %0, ptr noundef %1) unnamed_addr #5 comdat align 2 {
  %3 = alloca ptr, align 8
  %4 = alloca ptr, align 8
  store ptr %0, ptr %3, align 8
  store ptr %1, ptr %4, align 8
  %5 = load ptr, ptr %3, align 8
  %6 = load ptr, ptr %4, align 8
  call void @_ZN6google8protobuf8internal20RepeatedPtrFieldBaseC2EPNS0_5ArenaE(ptr noundef nonnull align 8 dereferenceable(24) %5, ptr noundef %6)
  ret void
}

; Function Attrs: mustprogress uwtable
define linkonce_odr dso_local void @_ZN6google8protobuf11MessageLiteC2EPNS0_5ArenaE(ptr noundef nonnull align 8 dereferenceable(16) %0, ptr noundef %1) unnamed_addr #4 comdat align 2 {
  %3 = alloca ptr, align 8
  %4 = alloca ptr, align 8
  store ptr %0, ptr %3, align 8
  store ptr %1, ptr %4, align 8
  %5 = load ptr, ptr %3, align 8
  store ptr getelementptr inbounds ({ [16 x ptr] }, ptr @_ZTVN6google8protobuf11MessageLiteE, i32 0, i32 0, i32 2), ptr %5, align 8
  %6 = getelementptr inbounds %"class.google::protobuf::MessageLite", ptr %5, i32 0, i32 1
  %7 = load ptr, ptr %4, align 8
  call void @_ZN6google8protobuf8internal16InternalMetadataC2EPNS0_5ArenaE(ptr noundef nonnull align 8 dereferenceable(8) %6, ptr noundef %7)
  ret void
}

; Function Attrs: mustprogress uwtable
define dso_local void @_ZN4i18n12phonenumbers23PhoneMetadataCollectionC2EPN6google8protobuf5ArenaE(ptr noundef nonnull align 8 dereferenceable(48) %0, ptr noundef %1) unnamed_addr #4 align 2 personality ptr @__gxx_personality_v0 {
  %3 = alloca ptr, align 8
  %4 = alloca ptr, align 8
  %5 = alloca ptr, align 8
  %6 = alloca i32, align 4
  store ptr %0, ptr %3, align 8
  store ptr %1, ptr %4, align 8
  %7 = load ptr, ptr %3, align 8
  %8 = load ptr, ptr %4, align 8
  call void @_ZN6google8protobuf11MessageLiteC2EPNS0_5ArenaE(ptr noundef nonnull align 8 dereferenceable(16) %7, ptr noundef %8)
  store ptr getelementptr inbounds ({ [16 x ptr] }, ptr @_ZTVN4i18n12phonenumbers23PhoneMetadataCollectionE, i32 0, i32 0, i32 2), ptr %7, align 8
  %9 = getelementptr inbounds %"class.i18n::phonenumbers::PhoneMetadataCollection", ptr %7, i32 0, i32 1
  %10 = load ptr, ptr %4, align 8
  invoke void @_ZN6google8protobuf16RepeatedPtrFieldIN4i18n12phonenumbers13PhoneMetadataEEC2EPNS0_5ArenaE(ptr noundef nonnull align 8 dereferenceable(24) %9, ptr noundef %10)
          to label %11 unwind label %16

11:                                               ; preds = %2
  %12 = getelementptr inbounds %"class.i18n::phonenumbers::PhoneMetadataCollection", ptr %7, i32 0, i32 2
  call void @_ZN6google8protobuf8internal10CachedSizeC2Ev(ptr noundef nonnull align 4 dereferenceable(4) %12) #3
  invoke void @_ZN4i18n12phonenumbers23PhoneMetadataCollection10SharedCtorEv(ptr noundef nonnull align 8 dereferenceable(48) %7)
          to label %13 unwind label %20

13:                                               ; preds = %11
  %14 = load ptr, ptr %4, align 8
  invoke void @_ZN4i18n12phonenumbers23PhoneMetadataCollection17RegisterArenaDtorEPN6google8protobuf5ArenaE(ptr noundef nonnull align 8 dereferenceable(48) %7, ptr noundef %14)
          to label %15 unwind label %20

15:                                               ; preds = %13
  ret void

16:                                               ; preds = %2
  %17 = landingpad { ptr, i32 }
          cleanup
  %18 = extractvalue { ptr, i32 } %17, 0
  store ptr %18, ptr %5, align 8
  %19 = extractvalue { ptr, i32 } %17, 1
  store i32 %19, ptr %6, align 4
  br label %24

20:                                               ; preds = %13, %11
  %21 = landingpad { ptr, i32 }
          cleanup
  %22 = extractvalue { ptr, i32 } %21, 0
  store ptr %22, ptr %5, align 8
  %23 = extractvalue { ptr, i32 } %21, 1
  store i32 %23, ptr %6, align 4
  call void @_ZN6google8protobuf16RepeatedPtrFieldIN4i18n12phonenumbers13PhoneMetadataEED2Ev(ptr noundef nonnull align 8 dereferenceable(24) %9) #3
  br label %24

24:                                               ; preds = %20, %16
  call void @_ZN6google8protobuf11MessageLiteD2Ev(ptr noundef nonnull align 8 dereferenceable(16) %7) #3
  br label %25

25:                                               ; preds = %24
  %26 = load ptr, ptr %5, align 8
  %27 = load i32, ptr %6, align 4
  %28 = insertvalue { ptr, i32 } poison, ptr %26, 0
  %29 = insertvalue { ptr, i32 } %28, i32 %27, 1
  resume { ptr, i32 } %29
}

; Function Attrs: mustprogress nounwind uwtable
define dso_local void @_ZN4i18n12phonenumbers23PhoneMetadataCollection21InitAsDefaultInstanceEv() #5 align 2 {
  ret void
}

; Function Attrs: mustprogress uwtable
define linkonce_odr dso_local void @_ZN6google8protobuf8internal24OnShutdownDestroyMessageEPKv(ptr noundef %0) #4 comdat {
  %2 = alloca ptr, align 8
  store ptr %0, ptr %2, align 8
  %3 = load ptr, ptr %2, align 8
  call void @_ZN6google8protobuf8internal13OnShutdownRunEPFvPKvES3_(ptr noundef @_ZN6google8protobuf8internal14DestroyMessageEPKv, ptr noundef %3)
  ret void
}

; Function Attrs: mustprogress uwtable
define linkonce_odr dso_local void @_ZN4i18n12phonenumbers23PhoneMetadataCollectionC2Ev(ptr noundef nonnull align 8 dereferenceable(48) %0) unnamed_addr #4 comdat align 2 {
  %2 = alloca ptr, align 8
  store ptr %0, ptr %2, align 8
  %3 = load ptr, ptr %2, align 8
  call void @_ZN4i18n12phonenumbers23PhoneMetadataCollectionC2EPN6google8protobuf5ArenaE(ptr noundef nonnull align 8 dereferenceable(48) %3, ptr noundef null)
  ret void
}

; Function Attrs: mustprogress uwtable
define internal void @_ZL66InitDefaultsscc_info_PhoneMetadataCollection_phonemetadata_2eprotov() #4 {
  %1 = alloca ptr, align 8
  call void @_ZN6google8protobuf8internal13VerifyVersionEiiPKc(i32 noundef 3012004, i32 noundef 3012000, ptr noundef @.str)
  store ptr @_ZN4i18n12phonenumbers42_PhoneMetadataCollection_default_instance_E, ptr %1, align 8
  %2 = load ptr, ptr %1, align 8
  call void @_ZN4i18n12phonenumbers23PhoneMetadataCollectionC2Ev(ptr noundef nonnull align 8 dereferenceable(48) %2)
  %3 = load ptr, ptr %1, align 8
  call void @_ZN6google8protobuf8internal24OnShutdownDestroyMessageEPKv(ptr noundef %3)
  call void @_ZN4i18n12phonenumbers23PhoneMetadataCollection21InitAsDefaultInstanceEv()
  ret void
}