; Function Attrs: mustprogress uwtable
define internal void @_ZL66InitDefaultsscc_info_PhoneMetadataCollection_phonemetadata_2eprotov() #3 personality ptr @__gxx_personality_v0 {
  tail call void @_ZN6google8protobuf8internal13VerifyVersionEiiPKc(i32 noundef 3012004, i32 noundef 3012000, ptr noundef nonnull @.str)
  store ptr null, ptr getelementptr inbounds (%"class.i18n::phonenumbers::PhoneMetadataCollectionDefaultTypeInternal", ptr @_ZN4i18n12phonenumbers42_PhoneMetadataCollection_default_instance_E, i64 0, i32 0, i32 0, i32 1, i64 0), align 8
  store ptr getelementptr inbounds ({ [16 x ptr] }, ptr @_ZTVN4i18n12phonenumbers23PhoneMetadataCollectionE, i64 0, i32 0, i64 2), ptr @_ZN4i18n12phonenumbers42_PhoneMetadataCollection_default_instance_E, align 8
  tail call void @llvm.memset.p0.i64(ptr noundef nonnull align 8 dereferenceable(28) getelementptr inbounds (%"class.i18n::phonenumbers::PhoneMetadataCollectionDefaultTypeInternal", ptr @_ZN4i18n12phonenumbers42_PhoneMetadataCollection_default_instance_E, i64 0, i32 0, i32 0, i32 1, i64 8), i8 0, i64 28, i1 false)
  %1 = load atomic i32, ptr @scc_info_PhoneMetadataCollection_phonemetadata_2eproto acquire, align 8
  %.not.i.i.i.i = icmp eq i32 %1, 0
  br i1 %.not.i.i.i.i, label %_ZN4i18n12phonenumbers23PhoneMetadataCollectionC2Ev.exit, label %2

2:                                                ; preds = %0
  invoke void @_ZN6google8protobuf8internal11InitSCCImplEPNS1_11SCCInfoBaseE(ptr noundef nonnull @scc_info_PhoneMetadataCollection_phonemetadata_2eproto)
          to label %_ZN4i18n12phonenumbers23PhoneMetadataCollectionC2Ev.exit unwind label %3

3:                                                ; preds = %2
  %4 = landingpad { ptr, i32 }
          cleanup
  tail call void @_ZN6google8protobuf16RepeatedPtrFieldIN4i18n12phonenumbers13PhoneMetadataEED2Ev(ptr noundef nonnull align 8 dereferenceable(24) getelementptr inbounds (%"class.i18n::phonenumbers::PhoneMetadataCollectionDefaultTypeInternal", ptr @_ZN4i18n12phonenumbers42_PhoneMetadataCollection_default_instance_E, i64 0, i32 0, i32 0, i32 1, i64 8)) #21
  resume { ptr, i32 } %4

_ZN4i18n12phonenumbers23PhoneMetadataCollectionC2Ev.exit: ; preds = %0, %2
  tail call void @_ZN6google8protobuf8internal13OnShutdownRunEPFvPKvES3_(ptr noundef nonnull @_ZN6google8protobuf8internal14DestroyMessageEPKv, ptr noundef nonnull @_ZN4i18n12phonenumbers42_PhoneMetadataCollection_default_instance_E)
  ret void
}